target datalayout = "e-m:e-p270:32:32-p271:32:32-p272:64:64-i64:64-i128:128-f80:128-n8:16:32:64-S128"
target triple = "x86_64-pc-linux-gnu"

; Function Attrs: nounwind uwtable
define internal zeroext i1 @CLOGPagePrecedes(i64 noundef %0, i64 noundef %1) #0 {
  %3 = alloca i64, align 8
  %4 = alloca i64, align 8
  %5 = alloca i32, align 4
  %6 = alloca i32, align 4
  store i64 %0, ptr %3, align 8
  store i64 %1, ptr %4, align 8
  call void @llvm.lifetime.start.p0(i64 4, ptr %5) #8
  call void @llvm.lifetime.start.p0(i64 4, ptr %6) #8
  %7 = load i64, ptr %3, align 8
  %8 = trunc i64 %7 to i32
  %9 = mul i32 %8, 32768
  store i32 %9, ptr %5, align 4
  %10 = load i32, ptr %5, align 4
  %11 = add i32 %10, 4
  store i32 %11, ptr %5, align 4
  %12 = load i64, ptr %4, align 8
  %13 = trunc i64 %12 to i32
  %14 = mul i32 %13, 32768
  store i32 %14, ptr %6, align 4
  %15 = load i32, ptr %6, align 4
  %16 = add i32 %15, 4
  store i32 %16, ptr %6, align 4
  %17 = load i32, ptr %5, align 4
  %18 = load i32, ptr %6, align 4
  %19 = call zeroext i1 @TransactionIdPrecedes(i32 noundef %17, i32 noundef %18)
  br i1 %19, label %20, label %26

20:                                               ; preds = %2
  %21 = load i32, ptr %5, align 4
  %22 = load i32, ptr %6, align 4
  %23 = add i32 %22, 32768
  %24 = sub i32 %23, 1
  %25 = call zeroext i1 @TransactionIdPrecedes(i32 noundef %21, i32 noundef %24)
  br label %26

26:                                               ; preds = %20, %2
  %27 = phi i1 [ false, %2 ], [ %25, %20 ]
  call void @llvm.lifetime.end.p0(i64 4, ptr %6) #8
  call void @llvm.lifetime.end.p0(i64 4, ptr %5) #8
  ret i1 %27
}