; Function Attrs: nounwind uwtable
define internal zeroext i1 @CLOGPagePrecedes(i64 noundef %0, i64 noundef %1) #0 {
  %3 = trunc i64 %0 to i32
  %4 = shl i32 %3, 15
  %5 = or disjoint i32 %4, 4
  %6 = trunc i64 %1 to i32
  %7 = shl i32 %6, 15
  %8 = or disjoint i32 %7, 4
  %9 = tail call zeroext i1 @TransactionIdPrecedes(i32 noundef %5, i32 noundef %8) #9
  br i1 %9, label %10, label %13

10:                                               ; preds = %2
  %11 = add i32 %7, 32771
  %12 = tail call zeroext i1 @TransactionIdPrecedes(i32 noundef %5, i32 noundef %11) #9
  br label %13

13:                                               ; preds = %10, %2
  %14 = phi i1 [ false, %2 ], [ %12, %10 ]
  ret i1 %14
}